; Function Attrs: mustprogress uwtable
define dso_local void @_Z11handleErrorRN6icu_779ErrorCodeEiPKc(ptr noundef nonnull align 8 dereferenceable(12) %0, i32 noundef %1, ptr noundef %2) local_unnamed_addr #4 {
  %4 = getelementptr inbounds nuw i8, ptr %0, i64 8
  %5 = load i32, ptr %4, align 8, !tbaa !16
  %6 = icmp slt i32 %5, 1
  br i1 %6, label %17, label %7

7:                                                ; preds = %3
  %8 = tail call noundef nonnull align 8 dereferenceable(8) ptr @_ZStlsISt11char_traitsIcEERSt13basic_ostreamIcT_ES5_PKc(ptr noundef nonnull align 8 dereferenceable(8) @_ZSt4cerr, ptr noundef nonnull @.str.1)
  %9 = tail call noundef nonnull align 8 dereferenceable(8) ptr @_ZNSolsEi(ptr noundef nonnull align 8 dereferenceable(8) %8, i32 noundef %1)
  %10 = tail call noundef nonnull align 8 dereferenceable(8) ptr @_ZStlsISt11char_traitsIcEERSt13basic_ostreamIcT_ES5_PKc(ptr noundef nonnull align 8 dereferenceable(8) %9, ptr noundef nonnull @.str.2)
  %11 = tail call noundef nonnull align 8 dereferenceable(8) ptr @_ZStlsISt11char_traitsIcEERSt13basic_ostreamIcT_ES5_PKc(ptr noundef nonnull align 8 dereferenceable(8) %10, ptr noundef %2)
  %12 = tail call noundef nonnull align 8 dereferenceable(8) ptr @_ZStlsISt11char_traitsIcEERSt13basic_ostreamIcT_ES5_PKc(ptr noundef nonnull align 8 dereferenceable(8) %11, ptr noundef nonnull @.str.3)
  %13 = tail call noundef ptr @_ZNK6icu_779ErrorCode9errorNameEv(ptr noundef nonnull align 8 dereferenceable(12) %0)
  %14 = tail call noundef nonnull align 8 dereferenceable(8) ptr @_ZStlsISt11char_traitsIcEERSt13basic_ostreamIcT_ES5_PKc(ptr noundef nonnull align 8 dereferenceable(8) %12, ptr noundef %13)
  %15 = tail call noundef nonnull align 8 dereferenceable(8) ptr @_ZSt4endlIcSt11char_traitsIcEERSt13basic_ostreamIT_T0_ES6_(ptr noundef nonnull align 8 dereferenceable(8) %14)
  %16 = tail call noundef i32 @_ZN6icu_779ErrorCode5resetEv(ptr noundef nonnull align 8 dereferenceable(12) %0)
  tail call void @exit(i32 noundef %16) #30
  unreachable

17:                                               ; preds = %3
  ret void
}